Certificate:
    Data:
        Version: 3 (0x2)
        Serial Number: 3 (0x3)
        Signature Algorithm: md5WithRSAEncryption
        Issuer: C=KG, ST=NA, L=BISHKEK, O=OpenVPN-TEST, CN=VPN-Gigi/emailAddress=me@myhost.mydomain
        Validity
            Not Before: Mar  1 22:00:53 2007 GMT
            Not After : Feb 26 22:00:53 2017 GMT
        Subject: C=KG, ST=NA, O=OpenVPN-TEST, CN=client2/emailAddress=me@myhost.mydomain
        Subject Public Key Info:
            Public Key Algorithm: rsaEncryption
            RSA Public Key: (1024 bit)
                Modulus (1024 bit):
                    00:ac:ce:14:c1:d9:ac:7b:49:ff:36:42:1e:23:1c:
                    5e:6c:6f:b5:3a:31:b4:27:72:07:65:c0:e6:21:42:
                    a5:b6:dd:d4:db:b8:43:b7:96:ce:25:bd:66:14:41:
                    5e:af:96:72:b1:e0:6f:cf:49:04:a7:6e:11:1a:8d:
                    d5:14:f7:36:2f:74:e2:e4:bf:91:9f:a4:28:8c:36:
                    ea:3d:76:c4:25:0c:1c:a5:66:c3:0c:de:59:1f:de:
                    3c:32:16:95:58:89:04:13:5a:7c:29:ac:31:8e:c3:
                    af:bd:e1:7e:ee:70:e2:e6:06:4e:be:bc:2d:da:8c:
                    6c:5f:63:07:9c:dc:98:13:23
                Exponent: 65537 (0x10001)
        X509v3 extensions:
            X509v3 Basic Constraints: 
                CA:FALSE
            Netscape Comment: 
                OpenSSL Generated Certificate
            X509v3 Subject Key Identifier: 
                D2:C5:A9:31:0D:8E:7E:16:CC:99:3C:1C:42:06:42:E3:9C:32:D5:C3
            X509v3 Authority Key Identifier: 
                keyid:5A:21:4E:9B:5E:82:47:58:D3:F8:E5:39:C8:60:A6:F7:26:36:B5:A4
                DirName:/C=KG/ST=NA/L=BISHKEK/O=OpenVPN-TEST/CN=VPN-Gigi/emailAddress=me@myhost.mydomain
                serial:CD:91:89:1D:A0:48:15:4B

    Signature Algorithm: md5WithRSAEncryption
        60:ec:f9:81:fc:8d:aa:8a:a3:6d:16:fd:f2:65:c3:f9:4e:1e:
        01:c6:e6:7f:51:67:1c:16:f8:8a:84:40:59:f3:69:d2:9f:fd:
        a5:39:33:38:cb:33:d1:a2:c6:04:c9:33:af:db:0b:f7:ae:ae:
        c9:7e:f2:cf:05:0f:66:e0:2f:4b:87:ed:11:85:ee:9f:2f:be:
        91:a2:49:66:13:50:ad:1c:6b:b0:bb:9f:f8:85:44:8e:1e:7d:
        25:e2:05:cf:f8:ab:35:7c:5b:56:5d:65:73:49:cf:65:aa:f1:
        6b:95:68:a8:60:ba:07:31:8f:e2:bd:30:47:60:57:d4:34:ae:
        4b:4c
-----BEGIN CERTIFICATE-----
MIIDYTCCAsqgAwIBAgIBAzANBgkqhkiG9w0BAQQFADB5MQswCQYDVQQGEwJLRzEL
MAkGA1UECBMCTkExEDAOBgNVBAcTB0JJU0hLRUsxFTATBgNVBAoTDE9wZW5WUE4t
VEVTVDERMA8GA1UEAxMIVlBOLUdpZ2kxITAfBgkqhkiG9w0BCQEWEm1lQG15aG9z
dC5teWRvbWFpbjAeFw0wNzAzMDEyMjAwNTNaFw0xNzAyMjYyMjAwNTNaMGYxCzAJ
BgNVBAYTAktHMQswCQYDVQQIEwJOQTEVMBMGA1UEChMMT3BlblZQTi1URVNUMRAw
DgYDVQQDEwdjbGllbnQyMSEwHwYJKoZIhvcNAQkBFhJtZUBteWhvc3QubXlkb21h
aW4wgZ8wDQYJKoZIhvcNAQEBBQADgY0AMIGJAoGBAKzOFMHZrHtJ/zZCHiMcXmxv
tToxtCdyB2XA5iFCpbbd1Nu4Q7eWziW9ZhRBXq+WcrHgb89JBKduERqN1RT3Ni90
4uS/kZ+kKIw26j12xCUMHKVmwwzeWR/ePDIWlViJBBNafCmsMY7Dr73hfu5w4uYG
Tr68LdqMbF9jB5zcmBMjAgMBAAGjggEKMIIBBjAJBgNVHRMEAjAAMCwGCWCGSAGG
+EIBDQQfFh1PcGVuU1NMIEdlbmVyYXRlZCBDZXJ0aWZpY2F0ZTAdBgNVHQ4EFgQU
0sWpMQ2OfhbMmTwcQgZC45wy1cMwgasGA1UdIwSBozCBoIAUWiFOm16CR1jT+OU5
yGCm9yY2taShfaR7MHkxCzAJBgNVBAYTAktHMQswCQYDVQQIEwJOQTEQMA4GA1UE
BxMHQklTSEtFSzEVMBMGA1UEChMMT3BlblZQTi1URVNUMREwDwYDVQQDEwhWUE4t
R2lnaTEhMB8GCSqGSIb3DQEJARYSbWVAbXlob3N0Lm15ZG9tYWluggkAzZGJHaBI
FUswDQYJKoZIhvcNAQEEBQADgYEAYOz5gfyNqoqjbRb98mXD+U4eAcbmf1FnHBb4
ioRAWfNp0p/9pTkzOMsz0aLGBMkzr9sL966uyX7yzwUPZuAvS4ftEYXuny++kaJJ
ZhNQrRxrsLuf+IVEjh59JeIFz/irNXxbVl1lc0nPZarxa5VoqGC6BzGP4r0wR2BX
1DSuS0w=
-----END CERTIFICATE-----
