Certificate:
    Data:
        Version: 3 (0x2)
        Serial Number: 1 (0x1)
        Signature Algorithm: md5WithRSAEncryption
        Issuer: C=KG, ST=NA, L=BISHKEK, O=OpenVPN-TEST, CN=VPN-Gigi/emailAddress=me@myhost.mydomain
        Validity
            Not Before: Mar  1 21:57:43 2007 GMT
            Not After : Feb 26 21:57:43 2017 GMT
        Subject: C=KG, ST=NA, O=OpenVPN-TEST, CN=server/emailAddress=me@myhost.mydomain
        Subject Public Key Info:
            Public Key Algorithm: rsaEncryption
            RSA Public Key: (1024 bit)
                Modulus (1024 bit):
                    00:e1:ad:45:47:d1:1e:24:0f:07:96:1c:f2:73:c7:
                    31:72:64:e5:af:d4:ee:f2:a9:07:27:2f:e4:1b:f2:
                    32:82:35:f8:21:4e:3a:07:ae:fa:d3:90:e5:8a:7b:
                    f2:95:58:66:e8:db:61:bb:2e:4f:82:ac:d1:4e:6d:
                    2e:a2:0d:4e:1e:55:0f:d3:91:11:85:6b:e7:c7:f5:
                    9e:62:c2:e4:d5:39:de:db:fd:46:4f:78:eb:18:1c:
                    65:47:59:f8:bf:dd:8a:d3:f8:3d:94:7e:65:dd:39:
                    9d:38:89:de:ce:9c:6a:7b:ec:2b:f9:7c:cf:c8:b8:
                    0f:6c:e9:95:a9:17:5d:63:99
                Exponent: 65537 (0x10001)
        X509v3 extensions:
            X509v3 Basic Constraints: 
                CA:FALSE
            Netscape Cert Type: 
                SSL Server
            Netscape Comment: 
                OpenSSL Generated Server Certificate
            X509v3 Subject Key Identifier: 
                28:07:A9:74:CD:C5:11:99:13:FD:F0:BB:9D:A9:1B:7F:7D:7F:1F:8B
            X509v3 Authority Key Identifier: 
                keyid:5A:21:4E:9B:5E:82:47:58:D3:F8:E5:39:C8:60:A6:F7:26:36:B5:A4
                DirName:/C=KG/ST=NA/L=BISHKEK/O=OpenVPN-TEST/CN=VPN-Gigi/emailAddress=me@myhost.mydomain
                serial:CD:91:89:1D:A0:48:15:4B

    Signature Algorithm: md5WithRSAEncryption
        61:49:21:07:2b:d2:72:28:e6:9a:87:b0:69:7c:f0:bf:ca:34:
        6e:56:75:96:73:02:7a:02:31:98:0b:e7:1c:ac:e6:b5:80:be:
        d4:7e:2b:f2:9d:fd:27:01:2e:bf:0e:ed:e7:af:f2:7f:54:c7:
        df:46:83:b7:c6:b6:a7:43:54:4b:31:1c:25:ae:e2:22:14:13:
        c6:26:f6:25:81:5f:17:bb:c4:a8:16:f8:14:6f:8f:86:25:51:
        66:5e:b5:53:0e:30:b6:3f:2a:d4:a0:ff:d4:76:e2:16:ff:10:
        b7:59:76:1b:74:c4:57:2e:9c:08:18:a0:9e:77:ed:40:a9:3c:
        1f:87
-----BEGIN CERTIFICATE-----
MIIDejCCAuOgAwIBAgIBATANBgkqhkiG9w0BAQQFADB5MQswCQYDVQQGEwJLRzEL
MAkGA1UECBMCTkExEDAOBgNVBAcTB0JJU0hLRUsxFTATBgNVBAoTDE9wZW5WUE4t
VEVTVDERMA8GA1UEAxMIVlBOLUdpZ2kxITAfBgkqhkiG9w0BCQEWEm1lQG15aG9z
dC5teWRvbWFpbjAeFw0wNzAzMDEyMTU3NDNaFw0xNzAyMjYyMTU3NDNaMGUxCzAJ
BgNVBAYTAktHMQswCQYDVQQIEwJOQTEVMBMGA1UEChMMT3BlblZQTi1URVNUMQ8w
DQYDVQQDEwZzZXJ2ZXIxITAfBgkqhkiG9w0BCQEWEm1lQG15aG9zdC5teWRvbWFp
bjCBnzANBgkqhkiG9w0BAQEFAAOBjQAwgYkCgYEA4a1FR9EeJA8Hlhzyc8cxcmTl
r9Tu8qkHJy/kG/IygjX4IU46B67605DlinvylVhm6Nthuy5PgqzRTm0uog1OHlUP
05ERhWvnx/WeYsLk1Tne2/1GT3jrGBxlR1n4v92K0/g9lH5l3TmdOInezpxqe+wr
+XzPyLgPbOmVqRddY5kCAwEAAaOCASQwggEgMAkGA1UdEwQCMAAwEQYJYIZIAYb4
QgEBBAQDAgZAMDMGCWCGSAGG+EIBDQQmFiRPcGVuU1NMIEdlbmVyYXRlZCBTZXJ2
ZXIgQ2VydGlmaWNhdGUwHQYDVR0OBBYEFCgHqXTNxRGZE/3wu52pG399fx+LMIGr
BgNVHSMEgaMwgaCAFFohTptegkdY0/jlOchgpvcmNrWkoX2kezB5MQswCQYDVQQG
EwJLRzELMAkGA1UECBMCTkExEDAOBgNVBAcTB0JJU0hLRUsxFTATBgNVBAoTDE9w
ZW5WUE4tVEVTVDERMA8GA1UEAxMIVlBOLUdpZ2kxITAfBgkqhkiG9w0BCQEWEm1l
QG15aG9zdC5teWRvbWFpboIJAM2RiR2gSBVLMA0GCSqGSIb3DQEBBAUAA4GBAGFJ
IQcr0nIo5pqHsGl88L/KNG5WdZZzAnoCMZgL5xys5rWAvtR+K/Kd/ScBLr8O7eev
8n9Ux99Gg7fGtqdDVEsxHCWu4iIUE8Ym9iWBXxe7xKgW+BRvj4YlUWZetVMOMLY/
KtSg/9R24hb/ELdZdht0xFcunAgYoJ537UCpPB+H
-----END CERTIFICATE-----
